; Function Attrs: null_pointer_is_valid sspstrong uwtable
define internal i32 @dissect_SuccessfulOutcomeValue(ptr noundef %0, ptr noundef %1, ptr noundef %2, ptr readnone captures(none) %3) #0 {
  %5 = load ptr, ptr @ProcedureID, align 8
  %.not = icmp eq ptr %5, null
  br i1 %.not, label %11, label %6

6:                                                ; preds = %4
  %7 = load ptr, ptr @nbap_proc_sout_dissector_table, align 8
  %8 = tail call i32 @dissector_try_string_with_data(ptr noundef %7, ptr noundef nonnull %5, ptr noundef %0, ptr noundef %1, ptr noundef %2, i1 noundef zeroext true, ptr noundef null)
  %.not5 = icmp eq i32 %8, 0
  br i1 %.not5, label %11, label %9

9:                                                ; preds = %6
  %10 = tail call i32 @tvb_captured_length(ptr noundef %0)
  br label %11

11:                                               ; preds = %9, %6, %4
  %.0 = phi i32 [ 0, %4 ], [ %10, %9 ], [ 0, %6 ]
  ret i32 %.0
}